; Function Attrs: mustprogress uwtable
define void @_ZNK2cv5aruco15CharucoDetector11detectBoardERKNS_11_InputArrayERKNS_12_OutputArrayES7_RKNS_17_InputOutputArrayESA_(ptr nocapture noundef nonnull readonly align 8 dereferenceable(24) %0, ptr noundef nonnull align 8 dereferenceable(24) %1, ptr noundef nonnull align 8 dereferenceable(24) %2, ptr noundef nonnull align 8 dereferenceable(24) %3, ptr noundef nonnull align 8 dereferenceable(24) %4, ptr noundef nonnull align 8 dereferenceable(24) %5) local_unnamed_addr #3 align 2 {
  %7 = getelementptr inbounds i8, ptr %0, i64 8
  %8 = load ptr, ptr %7, align 8
  tail call void @_ZN2cv5aruco15CharucoDetector19CharucoDetectorImpl11detectBoardERKNS_11_InputArrayERKNS_12_OutputArrayES8_RKNS_17_InputOutputArrayESB_(ptr noundef nonnull align 8 dereferenceable(240) %8, ptr noundef nonnull align 8 dereferenceable(24) %1, ptr noundef nonnull align 8 dereferenceable(24) %2, ptr noundef nonnull align 8 dereferenceable(24) %3, ptr noundef nonnull align 8 dereferenceable(24) %4, ptr noundef nonnull align 8 dereferenceable(24) %5)
  %9 = load ptr, ptr %7, align 8
  %10 = tail call noundef zeroext i1 @_ZN2cv5aruco15CharucoDetector19CharucoDetectorImpl10checkBoardERKNS_11_InputArrayES5_S5_S5_(ptr noundef nonnull align 8 dereferenceable(240) %9, ptr noundef nonnull align 8 dereferenceable(24) %4, ptr noundef nonnull align 8 dereferenceable(24) %5, ptr noundef nonnull align 8 dereferenceable(24) %2, ptr noundef nonnull align 8 dereferenceable(24) %3)
  br i1 %10, label %12, label %11

11:                                               ; preds = %6
  tail call void @_ZNK2cv12_OutputArray7releaseEv(ptr noundef nonnull align 8 dereferenceable(24) %2)
  tail call void @_ZNK2cv12_OutputArray7releaseEv(ptr noundef nonnull align 8 dereferenceable(24) %3)
  br label %12

12:                                               ; preds = %11, %6
  ret void
}